; Function Attrs: nounwind uwtable
define dso_local i64 @gist_box_penalty(ptr noundef readonly captures(none) %0) local_unnamed_addr #0 {
  %2 = getelementptr inbounds nuw i8, ptr %0, i64 32
  %3 = load i64, ptr %2, align 8
  %4 = inttoptr i64 %3 to ptr
  %5 = getelementptr inbounds nuw i8, ptr %0, i64 48
  %6 = load i64, ptr %5, align 8
  %7 = inttoptr i64 %6 to ptr
  %8 = getelementptr inbounds nuw i8, ptr %0, i64 64
  %9 = load i64, ptr %8, align 8
  %10 = inttoptr i64 %9 to ptr
  %11 = load i64, ptr %4, align 8
  %12 = inttoptr i64 %11 to ptr
  %13 = load i64, ptr %7, align 8
  %14 = inttoptr i64 %13 to ptr
  %15 = tail call fastcc double @box_penalty(ptr noundef %12, ptr noundef %14)
  %16 = fptrunc double %15 to float
  store float %16, ptr %10, align 4
  ret i64 %9
}